csympy.matrices.immutable
ImmutableMatrix
p0
(csympy.core.numbers
Integer
p1
(I4
tp2
Rp3
(dp4
bcsympy.core.numbers
One
p5
(I1
tp6
Rp7
(dp8
bcsympy.core.containers
Tuple
p9
(csympy.core.mul
Mul
p10
(csympy.core.numbers
Float
p11
((I0
S'b333333333333L'
p12
I-53
I52
tp13
tp14
Rp15
(dp16
S'_prec'
p17
I53
sbcsympy.functions.elementary.trigonometric
cos
p18
(csympy.core.symbol
Symbol
p19
(S'q1'
p20
tp21
Rp22
(dp23
S'_assumptions'
p24
ccopy_reg
_reconstructor
p25
(csympy.core.assumptions
StdFactKB
p26
c__builtin__
dict
p27
(dp28
S'real'
p29
NsS'irrational'
p30
NsS'antihermitian'
p31
NsS'nonpositive'
p32
NsS'negative'
p33
NsS'algebraic'
p34
NsS'hermitian'
p35
NsS'infinite'
p36
NsS'integer'
p37
NsS'imaginary'
p38
NsS'odd'
p39
NsS'even'
p40
NsS'commutative'
p41
I01
sS'positive'
p42
NsS'zero'
p43
NsS'nonnegative'
p44
NsS'complex'
p45
NsS'rational'
p46
NsS'finite'
p47
Nstp48
Rp49
(dp50
S'_generator'
p51
(dp52
sbsbtp53
Rp54
(dp55
btp56
Rp57
(dp58
bg10
(g11
((I0
S'b333333333333L'
p59
I-53
I52
tp60
tp61
Rp62
(dp63
g17
I53
sbcsympy.functions.elementary.trigonometric
sin
p64
(g22
tp65
Rp66
(dp67
btp68
Rp69
(dp70
bg11
((I0
S'3L'
p71
I-2
I2
tp72
tp73
Rp74
(dp75
g17
I53
sbg7
tp76
Rp77
(dp78
btp79
Rp80
(dp81
b.