csympy.matrices.immutable
ImmutableMatrix
p0
(csympy.core.numbers
Integer
p1
(I3
tp2
Rp3
(dp4
bg3
csympy.core.containers
Tuple
p5
(csympy.core.mul
Mul
p6
(csympy.functions.elementary.trigonometric
cos
p7
(csympy.core.symbol
Symbol
p8
(S'p'
p9
tp10
Rp11
(dp12
S'_assumptions'
p13
ccopy_reg
_reconstructor
p14
(csympy.core.assumptions
StdFactKB
p15
c__builtin__
dict
p16
(dp17
S'real'
p18
NsS'irrational'
p19
NsS'antihermitian'
p20
NsS'nonpositive'
p21
NsS'negative'
p22
NsS'algebraic'
p23
NsS'hermitian'
p24
NsS'infinite'
p25
NsS'integer'
p26
NsS'imaginary'
p27
NsS'odd'
p28
NsS'even'
p29
NsS'commutative'
p30
I01
sS'positive'
p31
NsS'zero'
p32
NsS'nonnegative'
p33
NsS'complex'
p34
NsS'rational'
p35
NsS'finite'
p36
Nstp37
Rp38
(dp39
S'_generator'
p40
(dp41
sbsbtp42
Rp43
(dp44
bg7
(g8
(S'y'
p45
tp46
Rp47
(dp48
g13
g14
(g15
g16
(dp49
g18
Nsg19
Nsg20
Nsg21
Nsg22
Nsg23
Nsg24
Nsg25
Nsg26
Nsg27
Nsg28
Nsg29
Nsg30
I01
sg31
Nsg32
Nsg33
Nsg34
Nsg35
Nsg36
Nstp50
Rp51
(dp52
g40
(dp53
sbsbtp54
Rp55
(dp56
btp57
Rp58
(dp59
bcsympy.core.add
Add
p60
(g6
(csympy.core.numbers
NegativeOne
p61
(I-1
tp62
Rp63
(dp64
bg7
(g8
(S'r'
p65
tp66
Rp67
(dp68
g13
g14
(g15
g16
(dp69
g18
Nsg19
Nsg20
Nsg21
Nsg22
Nsg23
Nsg24
Nsg25
Nsg26
Nsg27
Nsg28
Nsg29
Nsg30
I01
sg31
Nsg32
Nsg33
Nsg34
Nsg35
Nsg36
Nstp70
Rp71
(dp72
g40
(dp73
sbsbtp74
Rp75
(dp76
bcsympy.functions.elementary.trigonometric
sin
p77
(g47
tp78
Rp79
(dp80
btp81
Rp82
(dp83
bg6
(g55
g77
(g11
tp84
Rp85
(dp86
bg77
(g67
tp87
Rp88
(dp89
btp90
Rp91
(dp92
btp93
Rp94
(dp95
bg60
(g6
(g88
g79
tp96
Rp97
(dp98
bg6
(g75
g55
g85
tp99
Rp100
(dp101
btp102
Rp103
(dp104
bg6
(g43
g79
tp105
Rp106
(dp107
bg60
(g6
(g75
g55
tp108
Rp109
(dp110
bg6
(g85
g88
g79
tp111
Rp112
(dp113
btp114
Rp115
(dp116
bg60
(g6
(g63
g55
g88
tp117
Rp118
(dp119
bg6
(g75
g85
g79
tp120
Rp121
(dp122
btp123
Rp124
(dp125
bg6
(g63
g85
tp126
Rp127
(dp128
bg6
(g43
g88
tp129
Rp130
(dp131
bg6
(g43
g75
tp132
Rp133
(dp134
btp135
Rp136
(dp137
btp138
Rp139
(dp140
b.